target datalayout = "e-m:e-p270:32:32-p271:32:32-p272:64:64-i64:64-i128:128-f80:128-n8:16:32:64-S128"
target triple = "x86_64-pc-linux-gnu"

%"class.clang::Stmt" = type { %union.anon }
%union.anon = type { %"class.clang::Stmt::PseudoObjectExprBitfields" }
%"class.clang::Stmt::PseudoObjectExprBitfields" = type { i64 }
%"class.clang::Expr" = type { %"class.clang::ValueStmt", %"class.clang::QualType" }
%"class.clang::ValueStmt" = type { %"class.clang::Stmt" }
%"class.clang::QualType" = type { %"class.llvm::PointerIntPair" }
%"class.llvm::PointerIntPair" = type { %"struct.llvm::detail::PunnedPointer" }
%"struct.llvm::detail::PunnedPointer" = type { [8 x i8] }
%"class.clang::SourceLocation" = type { i32 }
%"class.clang::DesignatedInitExpr::Designator" = type { i32, %union.anon.853 }
%union.anon.853 = type { %"struct.clang::DesignatedInitExpr::Designator::FieldDesignatorInfo" }
%"struct.clang::DesignatedInitExpr::Designator::FieldDesignatorInfo" = type { i64, %"class.clang::SourceLocation", %"class.clang::SourceLocation" }
%"class.llvm::ArrayRef.854" = type { ptr, i64 }
%"class.clang::DesignatedInitExpr" = type { %"class.clang::Expr", %"class.clang::SourceLocation", i32, ptr }
%"class.llvm::MutableArrayRef" = type { %"class.llvm::ArrayRef.854" }
%"struct.clang::DesignatedInitExpr::Designator::ArrayOrRangeDesignatorInfo" = type { i32, %"class.clang::SourceLocation", %"class.clang::SourceLocation", %"class.clang::SourceLocation" }

; Function Attrs: mustprogress nounwind uwtable
define linkonce_odr hidden noundef ptr @_ZNK4llvm8ArrayRefIN5clang18DesignatedInitExpr10DesignatorEE4dataEv(ptr noundef nonnull align 8 dereferenceable(16) %0) #0 comdat align 2 {
  %2 = alloca ptr, align 8
  store ptr %0, ptr %2, align 8
  %3 = load ptr, ptr %2, align 8
  %4 = getelementptr inbounds nuw %"class.llvm::ArrayRef.854", ptr %3, i32 0, i32 0
  %5 = load ptr, ptr %4, align 8
  ret ptr %5
}

; Function Attrs: mustprogress nounwind uwtable
define linkonce_odr hidden void @_ZN4llvm8ArrayRefIN5clang18DesignatedInitExpr10DesignatorEEC2EPKS3_m(ptr noundef nonnull align 8 dereferenceable(16) %0, ptr noundef %1, i64 noundef %2) unnamed_addr #0 comdat align 2 {
  %4 = alloca ptr, align 8
  %5 = alloca ptr, align 8
  %6 = alloca i64, align 8
  store ptr %0, ptr %4, align 8
  store ptr %1, ptr %5, align 8
  store i64 %2, ptr %6, align 8
  %7 = load ptr, ptr %4, align 8
  %8 = getelementptr inbounds nuw %"class.llvm::ArrayRef.854", ptr %7, i32 0, i32 0
  %9 = load ptr, ptr %5, align 8
  store ptr %9, ptr %8, align 8
  %10 = getelementptr inbounds nuw %"class.llvm::ArrayRef.854", ptr %7, i32 0, i32 1
  %11 = load i64, ptr %6, align 8
  store i64 %11, ptr %10, align 8
  ret void
}

; Function Attrs: mustprogress nounwind uwtable
define linkonce_odr hidden noundef ptr @_ZNK4llvm15MutableArrayRefIN5clang18DesignatedInitExpr10DesignatorEE4dataEv(ptr noundef nonnull align 8 dereferenceable(16) %0) #0 comdat align 2 {
  %2 = alloca ptr, align 8
  store ptr %0, ptr %2, align 8
  %3 = load ptr, ptr %2, align 8
  %4 = call noundef ptr @_ZNK4llvm8ArrayRefIN5clang18DesignatedInitExpr10DesignatorEE4dataEv(ptr noundef nonnull align 8 dereferenceable(16) %3)
  ret ptr %4
}

; Function Attrs: mustprogress nounwind uwtable
define linkonce_odr hidden void @_ZN4llvm15MutableArrayRefIN5clang18DesignatedInitExpr10DesignatorEEC2EPS3_m(ptr noundef nonnull align 8 dereferenceable(16) %0, ptr noundef %1, i64 noundef %2) unnamed_addr #0 comdat align 2 {
  %4 = alloca ptr, align 8
  %5 = alloca ptr, align 8
  %6 = alloca i64, align 8
  store ptr %0, ptr %4, align 8
  store ptr %1, ptr %5, align 8
  store i64 %2, ptr %6, align 8
  %7 = load ptr, ptr %4, align 8
  %8 = load ptr, ptr %5, align 8
  %9 = load i64, ptr %6, align 8
  call void @_ZN4llvm8ArrayRefIN5clang18DesignatedInitExpr10DesignatorEEC2EPKS3_m(ptr noundef nonnull align 8 dereferenceable(16) %7, ptr noundef %8, i64 noundef %9)
  ret void
}

; Function Attrs: mustprogress nounwind uwtable
define linkonce_odr hidden noundef nonnull align 8 dereferenceable(24) ptr @_ZNK4llvm15MutableArrayRefIN5clang18DesignatedInitExpr10DesignatorEEixEm(ptr noundef nonnull align 8 dereferenceable(16) %0, i64 noundef %1) #0 comdat align 2 {
  %3 = alloca ptr, align 8
  %4 = alloca i64, align 8
  store ptr %0, ptr %3, align 8
  store i64 %1, ptr %4, align 8
  %5 = load ptr, ptr %3, align 8
  %6 = call noundef ptr @_ZNK4llvm15MutableArrayRefIN5clang18DesignatedInitExpr10DesignatorEE4dataEv(ptr noundef nonnull align 8 dereferenceable(16) %5)
  %7 = load i64, ptr %4, align 8
  %8 = getelementptr inbounds %"class.clang::DesignatedInitExpr::Designator", ptr %6, i64 %7
  ret ptr %8
}

; Function Attrs: mustprogress nounwind uwtable
define linkonce_odr hidden { ptr, i64 } @_ZN5clang18DesignatedInitExpr11designatorsEv(ptr noundef nonnull align 8 dereferenceable(32) %0) #0 comdat align 2 {
  %2 = alloca %"class.llvm::MutableArrayRef", align 8
  %3 = alloca ptr, align 8
  store ptr %0, ptr %3, align 8
  %4 = load ptr, ptr %3, align 8
  %5 = getelementptr inbounds nuw %"class.clang::DesignatedInitExpr", ptr %4, i32 0, i32 3
  %6 = load ptr, ptr %5, align 8
  %7 = getelementptr inbounds nuw %"class.clang::DesignatedInitExpr", ptr %4, i32 0, i32 2
  %8 = load i32, ptr %7, align 4
  %9 = lshr i32 %8, 1
  %10 = and i32 %9, 32767
  %11 = zext i32 %10 to i64
  call void @_ZN4llvm15MutableArrayRefIN5clang18DesignatedInitExpr10DesignatorEEC2EPS3_m(ptr noundef nonnull align 8 dereferenceable(16) %2, ptr noundef %6, i64 noundef %11)
  %12 = getelementptr inbounds nuw %"class.llvm::MutableArrayRef", ptr %2, i32 0, i32 0
  %13 = load { ptr, i64 }, ptr %12, align 8
  ret { ptr, i64 } %13
}

; Function Attrs: mustprogress nounwind uwtable
define linkonce_odr hidden i32 @_ZNK5clang18DesignatedInitExpr10Designator14getLBracketLocEv(ptr noundef nonnull align 8 dereferenceable(24) %0) #0 comdat align 2 {
  %2 = alloca %"class.clang::SourceLocation", align 4
  %3 = alloca ptr, align 8
  store ptr %0, ptr %3, align 8
  %4 = load ptr, ptr %3, align 8
  %5 = getelementptr inbounds nuw %"class.clang::DesignatedInitExpr::Designator", ptr %4, i32 0, i32 1
  %6 = getelementptr inbounds nuw %"struct.clang::DesignatedInitExpr::Designator::ArrayOrRangeDesignatorInfo", ptr %5, i32 0, i32 1
  call void @llvm.memcpy.p0.p0.i64(ptr align 4 %2, ptr align 4 %6, i64 4, i1 false)
  %7 = getelementptr inbounds nuw %"class.clang::SourceLocation", ptr %2, i32 0, i32 0
  %8 = load i32, ptr %7, align 4
  ret i32 %8
}

; Function Attrs: mustprogress nounwind uwtable
define linkonce_odr hidden noundef zeroext i1 @_ZNK5clang14SourceLocation7isValidEv(ptr noundef nonnull align 4 dereferenceable(4) %0) #0 comdat align 2 {
  %2 = alloca ptr, align 8
  store ptr %0, ptr %2, align 8
  %3 = load ptr, ptr %2, align 8
  %4 = getelementptr inbounds nuw %"class.clang::SourceLocation", ptr %3, i32 0, i32 0
  %5 = load i32, ptr %4, align 4
  %6 = icmp ne i32 %5, 0
  ret i1 %6
}

; Function Attrs: mustprogress nounwind uwtable
define linkonce_odr hidden i32 @_ZNK5clang18DesignatedInitExpr10Designator9getDotLocEv(ptr noundef nonnull align 8 dereferenceable(24) %0) #0 comdat align 2 {
  %2 = alloca %"class.clang::SourceLocation", align 4
  %3 = alloca ptr, align 8
  store ptr %0, ptr %3, align 8
  %4 = load ptr, ptr %3, align 8
  %5 = getelementptr inbounds nuw %"class.clang::DesignatedInitExpr::Designator", ptr %4, i32 0, i32 1
  %6 = getelementptr inbounds nuw %"struct.clang::DesignatedInitExpr::Designator::FieldDesignatorInfo", ptr %5, i32 0, i32 1
  call void @llvm.memcpy.p0.p0.i64(ptr align 4 %2, ptr align 8 %6, i64 4, i1 false)
  %7 = getelementptr inbounds nuw %"class.clang::SourceLocation", ptr %2, i32 0, i32 0
  %8 = load i32, ptr %7, align 4
  ret i32 %8
}

; Function Attrs: mustprogress nounwind uwtable
define linkonce_odr hidden i32 @_ZNK5clang18DesignatedInitExpr10Designator11getFieldLocEv(ptr noundef nonnull align 8 dereferenceable(24) %0) #0 comdat align 2 {
  %2 = alloca %"class.clang::SourceLocation", align 4
  %3 = alloca ptr, align 8
  store ptr %0, ptr %3, align 8
  %4 = load ptr, ptr %3, align 8
  %5 = getelementptr inbounds nuw %"class.clang::DesignatedInitExpr::Designator", ptr %4, i32 0, i32 1
  %6 = getelementptr inbounds nuw %"struct.clang::DesignatedInitExpr::Designator::FieldDesignatorInfo", ptr %5, i32 0, i32 2
  call void @llvm.memcpy.p0.p0.i64(ptr align 4 %2, ptr align 4 %6, i64 4, i1 false)
  %7 = getelementptr inbounds nuw %"class.clang::SourceLocation", ptr %2, i32 0, i32 0
  %8 = load i32, ptr %7, align 4
  ret i32 %8
}

; Function Attrs: mustprogress nounwind uwtable
define linkonce_odr hidden noundef i32 @_ZNK5clang18DesignatedInitExpr4sizeEv(ptr noundef nonnull align 8 dereferenceable(32) %0) #0 comdat align 2 {
  %2 = alloca ptr, align 8
  store ptr %0, ptr %2, align 8
  %3 = load ptr, ptr %2, align 8
  %4 = getelementptr inbounds nuw %"class.clang::DesignatedInitExpr", ptr %3, i32 0, i32 2
  %5 = load i32, ptr %4, align 4
  %6 = lshr i32 %5, 1
  %7 = and i32 %6, 32767
  ret i32 %7
}

; Function Attrs: mustprogress nounwind uwtable
define linkonce_odr hidden noundef zeroext i1 @_ZNK5clang18DesignatedInitExpr10Designator17isFieldDesignatorEv(ptr noundef nonnull align 8 dereferenceable(24) %0) #0 comdat align 2 {
  %2 = alloca ptr, align 8
  store ptr %0, ptr %2, align 8
  %3 = load ptr, ptr %2, align 8
  %4 = getelementptr inbounds nuw %"class.clang::DesignatedInitExpr::Designator", ptr %3, i32 0, i32 0
  %5 = load i32, ptr %4, align 8
  %6 = icmp eq i32 %5, 0
  ret i1 %6
}

; Function Attrs: mustprogress nounwind uwtable
define linkonce_odr hidden noundef ptr @_ZN5clang18DesignatedInitExpr13getDesignatorEj(ptr noundef nonnull align 8 dereferenceable(32) %0, i32 noundef %1) #0 comdat align 2 {
  %3 = alloca ptr, align 8
  %4 = alloca i32, align 4
  %5 = alloca %"class.llvm::MutableArrayRef", align 8
  store ptr %0, ptr %3, align 8
  store i32 %1, ptr %4, align 4
  %6 = load ptr, ptr %3, align 8
  %7 = call { ptr, i64 } @_ZN5clang18DesignatedInitExpr11designatorsEv(ptr noundef nonnull align 8 dereferenceable(32) %6)
  %8 = getelementptr inbounds nuw %"class.llvm::MutableArrayRef", ptr %5, i32 0, i32 0
  %9 = getelementptr inbounds nuw { ptr, i64 }, ptr %8, i32 0, i32 0
  %10 = extractvalue { ptr, i64 } %7, 0
  store ptr %10, ptr %9, align 8
  %11 = getelementptr inbounds nuw { ptr, i64 }, ptr %8, i32 0, i32 1
  %12 = extractvalue { ptr, i64 } %7, 1
  store i64 %12, ptr %11, align 8
  %13 = load i32, ptr %4, align 4
  %14 = zext i32 %13 to i64
  %15 = call noundef nonnull align 8 dereferenceable(24) ptr @_ZNK4llvm15MutableArrayRefIN5clang18DesignatedInitExpr10DesignatorEEixEm(ptr noundef nonnull align 8 dereferenceable(16) %5, i64 noundef %14)
  ret ptr %15
}

; Function Attrs: mustprogress nounwind willreturn memory(read) uwtable
define dso_local i32 @_ZNK5clang18DesignatedInitExpr11getBeginLocEv(ptr noundef nonnull align 8 dereferenceable(32) %0) #4 align 2 {
  %2 = alloca %"class.clang::SourceLocation", align 4
  %3 = alloca ptr, align 8
  %4 = alloca ptr, align 8
  %5 = alloca ptr, align 8
  %6 = alloca i32, align 4
  %7 = alloca ptr, align 8
  store ptr %0, ptr %3, align 8
  %8 = load ptr, ptr %3, align 8
  store ptr %8, ptr %4, align 8
  %9 = load ptr, ptr %4, align 8
  %10 = call noundef ptr @_ZN5clang18DesignatedInitExpr13getDesignatorEj(ptr noundef nonnull align 8 dereferenceable(32) %9, i32 noundef 0)
  store ptr %10, ptr %5, align 8
  %11 = load ptr, ptr %5, align 8
  %12 = call noundef zeroext i1 @_ZNK5clang18DesignatedInitExpr10Designator17isFieldDesignatorEv(ptr noundef nonnull align 8 dereferenceable(24) %11)
  br i1 %12, label %13, label %43

13:                                               ; preds = %1
  store i32 0, ptr %6, align 4
  br label %14

14:                                               ; preds = %39, %13
  %15 = load i32, ptr %6, align 4
  %16 = load ptr, ptr %4, align 8
  %17 = call noundef i32 @_ZNK5clang18DesignatedInitExpr4sizeEv(ptr noundef nonnull align 8 dereferenceable(32) %16)
  %18 = icmp ult i32 %15, %17
  br i1 %18, label %19, label %42

19:                                               ; preds = %14
  %20 = load ptr, ptr %4, align 8
  %21 = load i32, ptr %6, align 4
  %22 = call noundef ptr @_ZN5clang18DesignatedInitExpr13getDesignatorEj(ptr noundef nonnull align 8 dereferenceable(32) %20, i32 noundef %21)
  store ptr %22, ptr %7, align 8
  %23 = getelementptr inbounds nuw %"class.clang::DesignatedInitExpr", ptr %8, i32 0, i32 2
  %24 = load i32, ptr %23, align 4
  %25 = and i32 %24, 1
  %26 = icmp ne i32 %25, 0
  br i1 %26, label %27, label %31

27:                                               ; preds = %19
  %28 = load ptr, ptr %7, align 8
  %29 = call i32 @_ZNK5clang18DesignatedInitExpr10Designator11getFieldLocEv(ptr noundef nonnull align 8 dereferenceable(24) %28)
  %30 = getelementptr inbounds nuw %"class.clang::SourceLocation", ptr %2, i32 0, i32 0
  store i32 %29, ptr %30, align 4
  br label %35

31:                                               ; preds = %19
  %32 = load ptr, ptr %7, align 8
  %33 = call i32 @_ZNK5clang18DesignatedInitExpr10Designator9getDotLocEv(ptr noundef nonnull align 8 dereferenceable(24) %32)
  %34 = getelementptr inbounds nuw %"class.clang::SourceLocation", ptr %2, i32 0, i32 0
  store i32 %33, ptr %34, align 4
  br label %35

35:                                               ; preds = %31, %27
  %36 = call noundef zeroext i1 @_ZNK5clang14SourceLocation7isValidEv(ptr noundef nonnull align 4 dereferenceable(4) %2)
  br i1 %36, label %38, label %37

37:                                               ; preds = %35
  br label %39

38:                                               ; preds = %35
  br label %47

39:                                               ; preds = %37
  %40 = load i32, ptr %6, align 4
  %41 = add i32 %40, 1
  store i32 %41, ptr %6, align 4
  br label %14, !llvm.loop !53

42:                                               ; preds = %14
  br label %43

43:                                               ; preds = %42, %1
  %44 = load ptr, ptr %5, align 8
  %45 = call i32 @_ZNK5clang18DesignatedInitExpr10Designator14getLBracketLocEv(ptr noundef nonnull align 8 dereferenceable(24) %44)
  %46 = getelementptr inbounds nuw %"class.clang::SourceLocation", ptr %2, i32 0, i32 0
  store i32 %45, ptr %46, align 4
  br label %47

47:                                               ; preds = %43, %38
  %48 = getelementptr inbounds nuw %"class.clang::SourceLocation", ptr %2, i32 0, i32 0
  %49 = load i32, ptr %48, align 4
  ret i32 %49
}

; Function Attrs: mustprogress nounwind uwtable
define internal i32 @_ZN12_GLOBAL__N_114getExprLocImplIN5clang18DesignatedInitExprEEENS1_14SourceLocationEPKNS1_4ExprEMS4_KFS3_vE(ptr noundef %0, i64 %1, i64 %2) #0 {
  %4 = alloca %"class.clang::SourceLocation", align 4
  %5 = alloca { i64, i64 }, align 8
  %6 = alloca ptr, align 8
  %7 = alloca { i64, i64 }, align 8
  %8 = getelementptr inbounds nuw { i64, i64 }, ptr %5, i32 0, i32 0
  store i64 %1, ptr %8, align 8
  %9 = getelementptr inbounds nuw { i64, i64 }, ptr %5, i32 0, i32 1
  store i64 %2, ptr %9, align 8
  %10 = load { i64, i64 }, ptr %5, align 8
  store ptr %0, ptr %6, align 8
  store { i64, i64 } %10, ptr %7, align 8
  %11 = load ptr, ptr %6, align 8
  %12 = call i32 @_ZNK5clang18DesignatedInitExpr11getBeginLocEv(ptr noundef nonnull align 8 dereferenceable(32) %11) #16
  %13 = getelementptr inbounds nuw %"class.clang::SourceLocation", ptr %4, i32 0, i32 0
  store i32 %12, ptr %13, align 4
  %14 = getelementptr inbounds nuw %"class.clang::SourceLocation", ptr %4, i32 0, i32 0
  %15 = load i32, ptr %14, align 4
  ret i32 %15
}