; Function Attrs: mustprogress nofree norecurse nosync nounwind willreturn memory(read, inaccessiblemem: none) uwtable
define internal fastcc i32 @_ZN12_GLOBAL__N_114getExprLocImplIN5clang18DesignatedInitExprEEENS1_14SourceLocationEPKNS1_4ExprEMS4_KFS3_vE(ptr nocapture noundef readonly %0) unnamed_addr #0 {
  %2 = getelementptr inbounds nuw i8, ptr %0, i64 24
  %3 = load ptr, ptr %2, align 8
  %4 = load i32, ptr %3, align 8
  %5 = icmp eq i32 %4, 0
  br i1 %5, label %.preheader.i, label %.loopexit.i

.preheader.i:                                     ; preds = %1
  %6 = getelementptr inbounds nuw i8, ptr %0, i64 20
  %7 = load i32, ptr %6, align 4
  %.fr19.i = freeze i32 %7
  %8 = lshr i32 %.fr19.i, 1
  %9 = and i32 %8, 32767
  %.not18.i = icmp eq i32 %9, 0
  br i1 %.not18.i, label %.loopexit.i, label %.lr.ph.i

.lr.ph.i:                                         ; preds = %.preheader.i
  %10 = and i32 %.fr19.i, 1
  %.not.i = icmp eq i32 %10, 0
  %wide.trip.count28.i = zext nneg i32 %9 to i64
  br i1 %.not.i, label %.lr.ph.split.us.i, label %.lr.ph.split.i

.lr.ph.split.us.i:                                ; preds = %.lr.ph.i
  %invariant.gep16.i = getelementptr inbounds i8, ptr %3, i64 16
  br label %11

11:                                               ; preds = %12, %.lr.ph.split.us.i
  %indvars.iv25.i = phi i64 [ %indvars.iv.next26.i, %12 ], [ 0, %.lr.ph.split.us.i ]
  %gep17.i = getelementptr inbounds %"class.clang::DesignatedInitExpr::Designator", ptr %invariant.gep16.i, i64 %indvars.iv25.i
  %storemerge.us.i = load i32, ptr %gep17.i, align 4
  %.not13.us.i = icmp eq i32 %storemerge.us.i, 0
  br i1 %.not13.us.i, label %12, label %_ZNK5clang18DesignatedInitExpr11getBeginLocEv.exit

12:                                               ; preds = %11
  %indvars.iv.next26.i = add nuw nsw i64 %indvars.iv25.i, 1
  %exitcond29.not.i = icmp eq i64 %indvars.iv.next26.i, %wide.trip.count28.i
  br i1 %exitcond29.not.i, label %.loopexit.i, label %11, !llvm.loop !13

.lr.ph.split.i:                                   ; preds = %.lr.ph.i
  %invariant.gep.i = getelementptr inbounds i8, ptr %3, i64 20
  br label %14

13:                                               ; preds = %14
  %indvars.iv.next.i = add nuw nsw i64 %indvars.iv.i, 1
  %exitcond.not.i = icmp eq i64 %indvars.iv.next.i, %wide.trip.count28.i
  br i1 %exitcond.not.i, label %.loopexit.i, label %14, !llvm.loop !13

14:                                               ; preds = %13, %.lr.ph.split.i
  %indvars.iv.i = phi i64 [ 0, %.lr.ph.split.i ], [ %indvars.iv.next.i, %13 ]
  %gep.i = getelementptr inbounds %"class.clang::DesignatedInitExpr::Designator", ptr %invariant.gep.i, i64 %indvars.iv.i
  %storemerge.i = load i32, ptr %gep.i, align 4
  %.not13.i = icmp eq i32 %storemerge.i, 0
  br i1 %.not13.i, label %13, label %_ZNK5clang18DesignatedInitExpr11getBeginLocEv.exit

.loopexit.i:                                      ; preds = %13, %12, %.preheader.i, %1
  %15 = getelementptr inbounds i8, ptr %3, i64 12
  %.sroa.0.0.copyload.i11.i = load i32, ptr %15, align 4
  br label %_ZNK5clang18DesignatedInitExpr11getBeginLocEv.exit

_ZNK5clang18DesignatedInitExpr11getBeginLocEv.exit: ; preds = %14, %11, %.loopexit.i
  %.sroa.0.0.i = phi i32 [ %.sroa.0.0.copyload.i11.i, %.loopexit.i ], [ %storemerge.us.i, %11 ], [ %storemerge.i, %14 ]
  ret i32 %.sroa.0.0.i
}